******************************************************************************
                  TI ARM Linker PC v5.1.11                     
******************************************************************************
>> Linked Thu Apr 02 00:39:16 2015

OUTPUT FILE NAME:   <test_drv8711.out>
ENTRY POINT SYMBOL: "_c_int00"  address: 00003911


MEMORY CONFIGURATION

         name            origin    length      used     unused   attr    fill
----------------------  --------  ---------  --------  --------  ----  --------
  FLASH                 00000000   00040000  000047fc  0003b804  R  X
  SRAM                  20000000   00008000  00000af1  0000750f  RW X


SEGMENT ALLOCATION MAP

run origin  load origin   length   init length attrs members
----------  ----------- ---------- ----------- ----- -------
00000000    00000000    00004800   00004800    r-x
  00000000    00000000    0000026c   0000026c    r-- .intvecs
  0000026c    0000026c    00003c64   00003c64    r-x .text
  00003ed0    00003ed0    00000740   00000740    r-- .const
  00004610    00004610    00000004   00000004    r-- .init_array
  00004618    00004618    000001e8   000001e8    r-- .cinit
20000000    20000000    00000af8   00000000    rw-
  20000000    20000000    000006bd   00000000    rw- .bss
  200006c0    200006c0    0000022c   00000000    rw- .data
  200008ec    200008ec    00000200   00000000    rw- .stack
  20000af0    20000af0    00000008   00000000    rw- .sysmem


SECTION ALLOCATION MAP

 output                                  attributes/
section   page    origin      length       input sections
--------  ----  ----------  ----------   ----------------
.intvecs   0    00000000    0000026c     
                  00000000    0000026c     tm4c123gh6pm_startup_ccs.obj (.intvecs)

.text      0    0000026c    00003c64     
                  0000026c    00000c84     tiva_utils.lib : ustdlib.obj (.text)
                  00000ef0    00000860                    : uartstdio.obj (.text)
                  00001750    000005f8     main.obj (.text)
                  00001d48    00000528     aeo1_drivers.lib : ssi_peripheral.obj (.text)
                  00002270    000003dc     rtsv7M4_T_le_v4SPD16_eabi.lib : memory.obj (.text)
                  0000264c    000002c8     aeo1_drivers.lib : qei_sensor.obj (.text)
                  00002914    00000260                      : ssi_display.obj (.text)
                  00002b74    000001f4                      : adc_potmeter.obj (.text)
                  00002d68    00000180                      : ssi_drv8711.obj (.text)
                  00002ee8    00000130     driverlib.lib : gpio.obj (.text:GPIOPadConfigSet)
                  00003018    0000012c     drv8711.obj (.text)
                  00003144    00000118     driverlib.lib : sysctl.obj (.text:SysCtlClockGet)
                  0000325c    000000f4     rtsv7M4_T_le_v4SPD16_eabi.lib : dtor_list.obj (.text)
                  00003350    000000bc                                   : typeinfo_.obj (.text)
                  0000340c    000000ac     tiva_utils.lib : cmdline.obj (.text)
                  000034b8    0000009c     rtsv7M4_T_le_v4SPD16_eabi.lib : memcpy_t2.obj (.text)
                  00003554    00000094                                   : auto_init.obj (.text)
                  000035e8    00000080     driverlib.lib : adc.obj (.text:ADCSequenceStepConfigure)
                  00003668    0000007a     rtsv7M4_T_le_v4SPD16_eabi.lib : memset_t2.obj (.text)
                  000036e2    00000002                                   : i_div0.obj (.text)
                  000036e4    00000064     aeo1_drivers.lib : alpha7segment.obj (.text)
                  00003748    00000060     driverlib.lib : interrupt.obj (.text:IntDisable)
                  000037a8    00000060                   : interrupt.obj (.text:IntEnable)
                  00003808    00000060     aeo1_drivers.lib : pwm_stepper.obj (.text)
                  00003868    0000005e     rtsv7M4_T_le_v4SPD16_eabi.lib : copy_decompress_rle.obj (.text)
                  000038c6    00000002     --HOLE-- [fill = 0]
                  000038c8    00000048     driverlib.lib : gpio.obj (.text:GPIOPinConfigure)
                  00003910    00000048     rtsv7M4_T_le_v4SPD16_eabi.lib : boot.obj (.text)
                  00003958    00000044                                   : cpy_tbl.obj (.text)
                  0000399c    00000044                                   : exit.obj (.text)
                  000039e0    00000042     driverlib.lib : ssi.obj (.text:SSIConfigSetExpClk)
                  00003a22    00000040                   : uart.obj (.text:UARTConfigSetExpClk)
                  00003a62    00000040     rtsv7M4_T_le_v4SPD16_eabi.lib : u_divt2.obj (.text)
                  00003aa2    0000003e     driverlib.lib : adc.obj (.text:ADCSequenceConfigure)
                  00003ae0    00000034                   : sysctl.obj (.text:SysCtlPeripheralEnable)
                  00003b14    00000034                   : sysctl.obj (.text:SysCtlPeripheralPresent)
                  00003b48    0000002e                   : adc.obj (.text:ADCIntStatus)
                  00003b76    0000002a                   : gpio.obj (.text:GPIODirModeSet)
                  00003ba0    0000001e                   : adc.obj (.text:ADCSequenceDataGet)
                  00003bbe    00000002     --HOLE-- [fill = 0]
                  00003bc0    0000001c                   : uart.obj (.text:UARTDisable)
                  00003bdc    00000018                   : adc.obj (.text:ADCClockConfigSet)
                  00003bf4    00000018                   : gpio.obj (.text:GPIOPinTypeGPIOOutput)
                  00003c0c    00000018     rtsv7M4_T_le_v4SPD16_eabi.lib : args_main.obj (.text)
                  00003c24    00000018                                   : strcmp.obj (.text)
                  00003c3c    00000016     driverlib.lib : adc.obj (.text:ADCProcessorTrigger)
                  00003c52    00000002     --HOLE-- [fill = 0]
                  00003c54    00000014                   : systick.obj (.text:SysTickEnable)
                  00003c68    00000014                   : systick.obj (.text:SysTickIntEnable)
                  00003c7c    00000014                   : uart.obj (.text:UARTEnable)
                  00003c90    00000014     rtsv7M4_T_le_v4SPD16_eabi.lib : _lock.obj (.text)
                  00003ca4    00000012     driverlib.lib : adc.obj (.text:ADCHardwareOversampleConfigure)
                  00003cb6    00000012                   : gpio.obj (.text:GPIOPinTypeADC)
                  00003cc8    00000012                   : gpio.obj (.text:GPIOPinTypeQEI)
                  00003cda    00000012                   : gpio.obj (.text:GPIOPinTypeSSI)
                  00003cec    00000012                   : gpio.obj (.text:GPIOPinTypeUART)
                  00003cfe    00000012                   : ssi.obj (.text:SSIDataGetNonBlocking)
                  00003d10    00000012     rtsv7M4_T_le_v4SPD16_eabi.lib : copy_zero_init.obj (.text:decompress:ZI)
                  00003d22    00000010     driverlib.lib : adc.obj (.text:ADCIntEnable)
                  00003d32    00000002     --HOLE-- [fill = 0]
                  00003d34    00000010                   : systick.obj (.text:SysTickPeriodSet)
                  00003d44    00000010     aeo1_drivers.lib : ssi_display.obj (.text:_ZNK4aeo114ssi_peripheral7IsEmptyEv)
                  00003d54    0000000e     driverlib.lib : adc.obj (.text:ADCIntDisable)
                  00003d62    0000000e                   : adc.obj (.text:ADCSequenceDisable)
                  00003d70    0000000e                   : adc.obj (.text:ADCSequenceEnable)
                  00003d7e    0000000e                   : qei.obj (.text:QEIConfigure)
                  00003d8c    0000000e                   : ssi.obj (.text:SSIDataPutNonBlocking)
                  00003d9a    0000000e                   : uart.obj (.text:UARTCharGetNonBlocking)
                  00003da8    0000000e                   : uart.obj (.text:UARTCharPutNonBlocking)
                  00003db6    0000000e     rtsv7M4_T_le_v4SPD16_eabi.lib : copy_decompress_none.obj (.text:decompress:none)
                  00003dc4    0000000c     driverlib.lib : cpu.obj (.text:CPUcpsid)
                  00003dd0    0000000c                   : cpu.obj (.text:CPUcpsie)
                  00003ddc    0000000c                   : uart.obj (.text:UARTCharsAvail)
                  00003de8    0000000c                   : uart.obj (.text:UARTSpaceAvail)
                  00003df4    0000000c     aeo1_drivers.lib : ssi_display.obj (.text:_ZN4aeo111ssi_display4OnTxEv)
                  00003e00    0000000c     tm4c123gh6pm_startup_ccs.obj (.text)
                  00003e0c    0000000a     driverlib.lib : adc.obj (.text:ADCIntClear)
                  00003e16    0000000a                   : interrupt.obj (.text:IntMasterDisable)
                  00003e20    0000000a                   : interrupt.obj (.text:IntMasterEnable)
                  00003e2a    0000000a                   : qei.obj (.text:QEIEnable)
                  00003e34    0000000a                   : ssi.obj (.text:SSIDisable)
                  00003e3e    0000000a                   : ssi.obj (.text:SSIEnable)
                  00003e48    0000000a                   : ssi.obj (.text:SSIIntDisable)
                  00003e52    0000000a                   : ssi.obj (.text:SSIIntStatus)
                  00003e5c    0000000a                   : uart.obj (.text:UARTIntDisable)
                  00003e66    0000000a                   : uart.obj (.text:UARTIntStatus)
                  00003e70    0000000a     aeo1_drivers.lib : ssi_display.obj (.text:_ZN4aeo114ssi_peripheral4OnRxEv)
                  00003e7a    0000000a                      : ssi_drv8711.obj (.text:_ZN4aeo114ssi_peripheral4OnTxEv)
                  00003e84    00000008     driverlib.lib : ssi.obj (.text:SSIIntEnable)
                  00003e8c    00000008                   : uart.obj (.text:UARTIntEnable)
                  00003e94    00000008     rtsv7M4_T_le_v4SPD16_eabi.lib : delete.obj (.text)
                  00003e9c    00000006     driverlib.lib : gpio.obj (.text:GPIOPinRead)
                  00003ea2    00000006                   : gpio.obj (.text:GPIOPinWrite)
                  00003ea8    00000006                   : sysctl.obj (.text:SysCtlDelay)
                  00003eae    00000006                   : uart.obj (.text:UARTClockSourceSet)
                  00003eb4    00000006                   : uart.obj (.text:UARTFIFOLevelSet)
                  00003eba    00000006     rtsv7M4_T_le_v4SPD16_eabi.lib : copy_decompress_rle.obj (.text:decompress:rle24)
                  00003ec0    00000004     driverlib.lib : qei.obj (.text:QEIPositionGet)
                  00003ec4    00000004                   : qei.obj (.text:QEIPositionSet)
                  00003ec8    00000004                   : ssi.obj (.text:SSIIntClear)
                  00003ecc    00000004                   : uart.obj (.text:UARTIntClear)

.const     0    00003ed0    00000740     
                  00003ed0    000001a2     main.obj (.const:.string)
                  00004072    00000002     rtsv7M4_T_le_v4SPD16_eabi.lib : typeinfo_.obj (.const:.typeinfo:_ZTSe)
                  00004074    00000090     driverlib.lib : gpio.obj (.const:g_pui32GPIOBaseAddrs)
                  00004104    0000008e     aeo1_drivers.lib : alpha7segment.obj (.const:_ZN4aeo119alpha7segment_tableE)
                  00004192    00000002     --HOLE-- [fill = 0]
                  00004194    00000070     driverlib.lib : interrupt.obj (.const)
                  00004204    0000006c                   : sysctl.obj (.const:g_pui32Xtals)
                  00004270    00000030     tiva_utils.lib : ustdlib.obj (.const:g_psDaysToMonth)
                  000042a0    00000028     rtsv7M4_T_le_v4SPD16_eabi.lib : typeinfo_.obj (.const:.typeinfo:_ZTSN10__cxxabiv123__fundamental_type_infoE)
                  000042c8    00000028     aeo1_drivers.lib : ssi_display.obj (.const:_ZTVN4aeo111ssi_displayE)
                  000042f0    00000028                      : ssi_drv8711.obj (.const:_ZTVN4aeo111ssi_drv8711E)
                  00004318    00000028                      : ssi_peripheral.obj (.const:_ZTVN4aeo114ssi_peripheralE)
                  00004340    00000028     tiva_utils.lib : uartstdio.obj (.const)
                  00004368    00000025     rtsv7M4_T_le_v4SPD16_eabi.lib : typeinfo_.obj (.const:.typeinfo:_ZTSN10__cxxabiv120__si_class_type_infoE)
                  0000438d    00000024                                   : typeinfo_.obj (.const:.typeinfo:_ZTSN10__cxxabiv119__pointer_type_infoE)
                  000043b1    00000022                                   : typeinfo_.obj (.const:.typeinfo:_ZTSN10__cxxabiv117__class_type_infoE)
                  000043d3    00000022                                   : typeinfo_.obj (.const:.typeinfo:_ZTSN10__cxxabiv117__pbase_type_infoE)
                  000043f5    00000003     --HOLE-- [fill = 0]
                  000043f8    0000001c     tiva_utils.lib : ustdlib.obj (.const)
                  00004414    00000018     aeo1_drivers.lib : ssi_peripheral.obj (.const:.typeinfo:_ZTSN4aeo114ssi_peripheralE)
                  0000442c    00000016                      : adc_potmeter.obj (.const:.typeinfo:_ZTSN4aeo112adc_potmeterE)
                  00004442    00000015                      : pwm_stepper.obj (.const:.typeinfo:_ZTSN4aeo111pwm_stepperE)
                  00004457    00000015                      : ssi_display.obj (.const:.typeinfo:_ZTSN4aeo111ssi_displayE)
                  0000446c    00000015                      : ssi_drv8711.obj (.const:.typeinfo:_ZTSN4aeo111ssi_drv8711E)
                  00004481    00000014                      : qei_sensor.obj (.const:.typeinfo:_ZTSN4aeo110qei_sensorE)
                  00004495    00000012                      : ssi_display.obj (.const:.string)
                  000044a7    00000001     --HOLE-- [fill = 0]
                  000044a8    00000012     tiva_utils.lib : uartstdio.obj (.const:.string)
                  000044ba    00000002     --HOLE-- [fill = 0]
                  000044bc    00000012                    : ustdlib.obj (.const:.string)
                  000044ce    00000002     --HOLE-- [fill = 0]
                  000044d0    00000010     rtsv7M4_T_le_v4SPD16_eabi.lib : typeinfo_.obj (.const:.typeinfo:_ZTIPKe)
                  000044e0    00000010     drv8711.obj (.const:.typeinfo:_ZTSN4aeo17drv8711E)
                  000044f0    00000010     rtsv7M4_T_le_v4SPD16_eabi.lib : typeinfo_.obj (.const:_ZTVN10__cxxabiv117__class_type_infoE)
                  00004500    00000010                                   : typeinfo_.obj (.const:_ZTVN10__cxxabiv119__pointer_type_infoE)
                  00004510    00000010                                   : typeinfo_.obj (.const:_ZTVN10__cxxabiv120__si_class_type_infoE)
                  00004520    00000010                                   : typeinfo_.obj (.const:_ZTVN10__cxxabiv123__fundamental_type_infoE)
                  00004530    00000010     aeo1_drivers.lib : qei_sensor.obj (.const:_ZTVN4aeo110qei_sensorE)
                  00004540    00000010                      : pwm_stepper.obj (.const:_ZTVN4aeo111pwm_stepperE)
                  00004550    00000010                      : adc_potmeter.obj (.const:_ZTVN4aeo112adc_potmeterE)
                  00004560    00000010     drv8711.obj (.const:_ZTVN4aeo17drv8711E)
                  00004570    0000000d     rtsv7M4_T_le_v4SPD16_eabi.lib : typeinfo_.obj (.const:.typeinfo:_ZTSSt9type_info)
                  0000457d    00000003     --HOLE-- [fill = 0]
                  00004580    0000000c                                   : typeinfo_.obj (.const:.typeinfo:_ZTIN10__cxxabiv117__class_type_infoE)
                  0000458c    0000000c                                   : typeinfo_.obj (.const:.typeinfo:_ZTIN10__cxxabiv117__pbase_type_infoE)
                  00004598    0000000c                                   : typeinfo_.obj (.const:.typeinfo:_ZTIN10__cxxabiv119__pointer_type_infoE)
                  000045a4    0000000c                                   : typeinfo_.obj (.const:.typeinfo:_ZTIN10__cxxabiv120__si_class_type_infoE)
                  000045b0    0000000c                                   : typeinfo_.obj (.const:.typeinfo:_ZTIN10__cxxabiv123__fundamental_type_infoE)
                  000045bc    0000000c     aeo1_drivers.lib : ssi_display.obj (.const:.typeinfo:_ZTIN4aeo111ssi_displayE)
                  000045c8    0000000c                      : ssi_drv8711.obj (.const:.typeinfo:_ZTIN4aeo111ssi_drv8711E)
                  000045d4    00000008                      : qei_sensor.obj (.const:.typeinfo:_ZTIN4aeo110qei_sensorE)
                  000045dc    00000008                      : pwm_stepper.obj (.const:.typeinfo:_ZTIN4aeo111pwm_stepperE)
                  000045e4    00000008                      : adc_potmeter.obj (.const:.typeinfo:_ZTIN4aeo112adc_potmeterE)
                  000045ec    00000008                      : ssi_peripheral.obj (.const:.typeinfo:_ZTIN4aeo114ssi_peripheralE)
                  000045f4    00000008     drv8711.obj (.const:.typeinfo:_ZTIN4aeo17drv8711E)
                  000045fc    00000008     rtsv7M4_T_le_v4SPD16_eabi.lib : typeinfo_.obj (.const:.typeinfo:_ZTISt9type_info)
                  00004604    00000008                                   : typeinfo_.obj (.const:.typeinfo:_ZTIe)
                  0000460c    00000004                                   : typeinfo_.obj (.const:.typeinfo:_ZTSPKe)

.init_array 
*          0    00004610    00000004     
                  00004610    00000004     main.obj (.init_array)

.cinit     0    00004618    000001e8     
                  00004618    000001bf     (.cinit..data.load) [load image, compression = rle]
                  000047d7    00000001     --HOLE-- [fill = 0]
                  000047d8    0000000c     (__TI_handler_table)
                  000047e4    00000004     --HOLE-- [fill = 0]
                  000047e8    00000008     (.cinit..bss.load) [load image, compression = zero_init]
                  000047f0    00000010     (__TI_cinit_table)

.bss       0    20000000    000006bd     UNINITIALIZED
                  20000000    00000400     tiva_utils.lib : uartstdio.obj (.bss:g_pcUARTTxBuffer)
                  20000400    00000080                    : uartstdio.obj (.bss:g_pcUARTRxBuffer)
                  20000480    00000080     main.obj (.bss:g_zInput)
                  20000500    0000007c     main.obj (.bss:g_oDrv8711)
                  2000057c    00000078     main.obj (.bss:g_oDialerDisplay)
                  200005f4    00000078     main.obj (.bss:g_oScaleDisplay)
                  2000066c    00000024     tiva_utils.lib : cmdline.obj (.bss:g_ppcArgv)
                  20000690    00000020     main.obj (.bss)
                  200006b0    00000004     (.common:_ZSt16__dummy_typeinfo)
                  200006b4    00000004     (.common:__dso_handle)
                  200006b8    00000004     (.common:g_ui32PortNum)
                  200006bc    00000001     (.common:g_bDisableEcho)

.data      0    200006c0    0000022c     UNINITIALIZED
                  200006c0    00000084     main.obj (.data:g_psCmdTable)
                  20000744    00000084     main.obj (.data:g_psRotaryMenu)
                  200007c8    0000002c     aeo1_drivers.lib : ssi_peripheral.obj (.data:_ZN4aeo118SSI0_SpecificationE)
                  200007f4    0000002c                      : ssi_peripheral.obj (.data:_ZN4aeo118SSI1_SpecificationE)
                  20000820    0000002c                      : ssi_peripheral.obj (.data:_ZN4aeo118SSI2_SpecificationE)
                  2000084c    0000002c                      : ssi_peripheral.obj (.data:_ZN4aeo118SSI3_SpecificationE)
                  20000878    00000015     tiva_utils.lib : uartstdio.obj (.data)
                  2000088d    00000003     --HOLE--
                  20000890    00000011     main.obj (.data)
                  200008a1    00000003     --HOLE--
                  200008a4    00000010     aeo1_drivers.lib : adc_potmeter.obj (.data)
                  200008b4    00000010                      : ssi_peripheral.obj (.data)
                  200008c4    0000000c     rtsv7M4_T_le_v4SPD16_eabi.lib : memory.obj (.data)
                  200008d0    00000008                                   : _lock.obj (.data)
                  200008d8    00000008                                   : exit.obj (.data)
                  200008e0    00000004                                   : dtor_list.obj (.data)
                  200008e4    00000004                                   : stkdepth_vars.obj (.data)
                  200008e8    00000004     tiva_utils.lib : ustdlib.obj (.data)

.stack     0    200008ec    00000200     UNINITIALIZED
                  200008ec    00000200     --HOLE--

.sysmem    0    20000af0    00000008     UNINITIALIZED
                  20000af0    00000008     rtsv7M4_T_le_v4SPD16_eabi.lib : memory.obj (.sysmem)


LINKER GENERATED COPY TABLES

__TI_cinit_table @ 000047f0 records: 2, size/record: 8, table size: 16
	.data: load addr=00004618, load size=000001bf bytes, run addr=200006c0, run size=0000022c bytes, compression=rle
	.bss: load addr=000047e8, load size=00000008 bytes, run addr=20000000, run size=000006bd bytes, compression=zero_init


LINKER GENERATED HANDLER TABLE

__TI_handler_table @ 000047d8 records: 3, size/record: 4, table size: 12
	index: 0, handler: __TI_decompress_rle24
	index: 1, handler: __TI_decompress_none
	index: 2, handler: __TI_zero_init


GLOBAL SYMBOLS: SORTED ALPHABETICALLY BY Name 

address    name
--------   ----
00003bdd   ADCClockConfigSet
00003ca5   ADCHardwareOversampleConfigure
00003e0d   ADCIntClear
00003d55   ADCIntDisable
00003d23   ADCIntEnable
00003b49   ADCIntStatus
00003c3d   ADCProcessorTrigger
00003aa3   ADCSequenceConfigure
00003ba1   ADCSequenceDataGet
00003d63   ADCSequenceDisable
00003d71   ADCSequenceEnable
000035e9   ADCSequenceStepConfigure
0000399d   C$$EXIT
00003dc5   CPUcpsid
00003dd1   CPUcpsie
0000340d   CmdLineProcess
00003b77   GPIODirModeSet
00002ee9   GPIOPadConfigSet
000038c9   GPIOPinConfigure
00003e9d   GPIOPinRead
00003cb7   GPIOPinTypeADC
00003bf5   GPIOPinTypeGPIOOutput
00003cc9   GPIOPinTypeQEI
00003cdb   GPIOPinTypeSSI
00003ced   GPIOPinTypeUART
00003ea3   GPIOPinWrite
00003749   IntDisable
000037a9   IntEnable
00003e17   IntMasterDisable
00003e21   IntMasterEnable
00002b75   OnADCInterrupt
00002d69   OnGPIOBInterrupt
00002d6b   OnGPIOEInterrupt
00001d49   OnSSI0Interrupt
00001d63   OnSSI1Interrupt
00001d7d   OnSSI2Interrupt
00001d97   OnSSI3Interrupt
00003d7f   QEIConfigure
00003e2b   QEIEnable
00003ec1   QEIPositionGet
00003ec5   QEIPositionSet
00003e01   ResetISR
00004610   SHT$$INIT_ARRAY$$Base
00004614   SHT$$INIT_ARRAY$$Limit
000039e1   SSIConfigSetExpClk
00003cff   SSIDataGetNonBlocking
00003d8d   SSIDataPutNonBlocking
00003e35   SSIDisable
00003e3f   SSIEnable
00003ec9   SSIIntClear
00003e49   SSIIntDisable
00003e85   SSIIntEnable
00003e53   SSIIntStatus
00003145   SysCtlClockGet
00003ea9   SysCtlDelay
00003ae1   SysCtlPeripheralEnable
00003b15   SysCtlPeripheralPresent
00003c55   SysTickEnable
00003c69   SysTickIntEnable
00001a51   SysTickIntHandler
00003d35   SysTickPeriodSet
00003d9b   UARTCharGetNonBlocking
00003da9   UARTCharPutNonBlocking
00003ddd   UARTCharsAvail
00003eaf   UARTClockSourceSet
00003a23   UARTConfigSetExpClk
00003bc1   UARTDisable
000015c9   UARTEchoSet
00003c7d   UARTEnable
00003eb5   UARTFIFOLevelSet
00001573   UARTFlushRx
00001593   UARTFlushTx
00003ecd   UARTIntClear
00003e5d   UARTIntDisable
00003e8d   UARTIntEnable
00003e67   UARTIntStatus
00001519   UARTPeek
000014f7   UARTRxBytesAvail
00003de9   UARTSpaceAvail
00000fdd   UARTStdioConfig
000015f5   UARTStdioIntHandler
00001505   UARTTxBytesFree
0000117f   UARTgetc
00001103   UARTgets
000014d3   UARTprintf
000011d9   UARTvprintf
00001063   UARTwrite
00001b31   _Z10Initializev
000018eb   _Z12OnMenuDialeri
00001a11   _Z13ConfigureUARTv
00001979   _Z14OnNumberDialeri
0000176b   _Z7CMD_setiPPc
000018a1   _Z7MNU_setiPPc
00001827   _Z8CMD_diagiPPc
000017b1   _Z8CMD_feediPPc
000017a1   _Z8CMD_haltiPPc
0000184f   _Z8CMD_helpiPPc
00001791   _Z8CMD_idleiPPc
000017d7   _Z8CMD_moveiPPc
000017fd   _Z8CMD_stopiPPc
0000180d   _Z8CMD_textiPPc
00001751   _Z8CMD_zeroiPPc
000018bf   _Z8MNU_feediPPc
000018d5   _Z8MNU_moveiPPc
00001bbd   _Z8MainLoopv
000019a9   _Z8OnDialeri
000033fd   _ZN10__cxxabiv116__enum_type_infoD0Ev
000033fb   _ZN10__cxxabiv116__enum_type_infoD1Ev
000033fb   _ZN10__cxxabiv116__enum_type_infoD2Ev
000033f3   _ZN10__cxxabiv117__array_type_infoD0Ev
000033f1   _ZN10__cxxabiv117__array_type_infoD1Ev
000033f1   _ZN10__cxxabiv117__array_type_infoD2Ev
000033e9   _ZN10__cxxabiv117__class_type_infoD0Ev
000033e7   _ZN10__cxxabiv117__class_type_infoD1Ev
000033e7   _ZN10__cxxabiv117__class_type_infoD2Ev
000033df   _ZN10__cxxabiv117__pbase_type_infoD0Ev
000033dd   _ZN10__cxxabiv117__pbase_type_infoD1Ev
000033dd   _ZN10__cxxabiv117__pbase_type_infoD2Ev
000033d5   _ZN10__cxxabiv119__pointer_type_infoD0Ev
000033d3   _ZN10__cxxabiv119__pointer_type_infoD1Ev
000033d3   _ZN10__cxxabiv119__pointer_type_infoD2Ev
000033cb   _ZN10__cxxabiv120__function_type_infoD0Ev
000033c9   _ZN10__cxxabiv120__function_type_infoD1Ev
000033c9   _ZN10__cxxabiv120__function_type_infoD2Ev
000033c1   _ZN10__cxxabiv120__si_class_type_infoD0Ev
000033bf   _ZN10__cxxabiv120__si_class_type_infoD1Ev
000033bf   _ZN10__cxxabiv120__si_class_type_infoD2Ev
000033b7   _ZN10__cxxabiv121__vmi_class_type_infoD0Ev
000033b5   _ZN10__cxxabiv121__vmi_class_type_infoD1Ev
000033b5   _ZN10__cxxabiv121__vmi_class_type_infoD2Ev
000033ad   _ZN10__cxxabiv123__fundamental_type_infoD0Ev
000033ab   _ZN10__cxxabiv123__fundamental_type_infoD1Ev
000033ab   _ZN10__cxxabiv123__fundamental_type_infoD2Ev
000033a3   _ZN10__cxxabiv129__pointer_to_member_type_infoD0Ev
000033a1   _ZN10__cxxabiv129__pointer_to_member_type_infoD1Ev
000033a1   _ZN10__cxxabiv129__pointer_to_member_type_infoD2Ev
000026a9   _ZN4aeo110qei_sensor10InitializeEv
000026d3   _ZN4aeo110qei_sensor3GetEv
00002739   _ZN4aeo110qei_sensor3SetEi
0000276f   _ZN4aeo110qei_sensor4DiagEv
0000275f   _ZN4aeo110qei_sensor4ZeroEv
000026fb   _ZN4aeo110qei_sensor8GetIndexEv
0000264d   _ZN4aeo110qei_sensorC1ENS0_9device_idENS0_13configurationE
0000264d   _ZN4aeo110qei_sensorC2ENS0_9device_idENS0_13configurationE
00002693   _ZN4aeo110qei_sensorD0Ev
00002687   _ZN4aeo110qei_sensorD1Ev
00002687   _ZN4aeo110qei_sensorD2Ev
0000383d   _ZN4aeo111pwm_stepper10InitializeEv
00003847   _ZN4aeo111pwm_stepper4DiagEv
00003809   _ZN4aeo111pwm_stepperC1Ev
00003809   _ZN4aeo111pwm_stepperC2Ev
00003827   _ZN4aeo111pwm_stepperD0Ev
0000381b   _ZN4aeo111pwm_stepperD1Ev
0000381b   _ZN4aeo111pwm_stepperD2Ev
00002955   _ZN4aeo111ssi_display10InitializeEv
00002aef   _ZN4aeo111ssi_display14Digit2SegmentsEjjb
00002a51   _ZN4aeo111ssi_display3SetEPKc
00002973   _ZN4aeo111ssi_display3SetEii
00002961   _ZN4aeo111ssi_display4DiagEv
00003df5   _ZN4aeo111ssi_display4OnTxEv
00002915   _ZN4aeo111ssi_displayC1ENS_14ssi_peripheral9device_idE
00002915   _ZN4aeo111ssi_displayC2ENS_14ssi_peripheral9device_idE
0000293f   _ZN4aeo111ssi_displayD0Ev
00002931   _ZN4aeo111ssi_displayD1Ev
00002931   _ZN4aeo111ssi_displayD2Ev
00002dad   _ZN4aeo111ssi_drv871110InitializeEv
00002e1f   _ZN4aeo111ssi_drv87114DiagEv
00002e5d   _ZN4aeo111ssi_drv87114OnRxEv
00002e6f   _ZN4aeo111ssi_drv87114ReadEv
00002d6d   _ZN4aeo111ssi_drv8711C1ENS_14ssi_peripheral9device_idE
00002d6d   _ZN4aeo111ssi_drv8711C2ENS_14ssi_peripheral9device_idE
00002d97   _ZN4aeo111ssi_drv8711D0Ev
00002d89   _ZN4aeo111ssi_drv8711D1Ev
00002d89   _ZN4aeo111ssi_drv8711D2Ev
00002bdf   _ZN4aeo112adc_potmeter10InitializeEv
200008a4   _ZN4aeo112adc_potmeter10m_nCounterE
00002c5b   _ZN4aeo112adc_potmeter11OnInterruptEv
200008ac   _ZN4aeo112adc_potmeter14m_nReadCounterE
00002d05   _ZN4aeo112adc_potmeter15GetErrorCounterEv
200008a8   _ZN4aeo112adc_potmeter15m_nErrorCounterE
200008b0   _ZN4aeo112adc_potmeter16m_pTheOneAndOnlyE
00002d1d   _ZN4aeo112adc_potmeter4DiagEv
00002cd7   _ZN4aeo112adc_potmeter7TriggerEv
00002ce5   _ZN4aeo112adc_potmeter8GetValueEv
00002c3f   _ZN4aeo112adc_potmeter9TerminateEv
00002b87   _ZN4aeo112adc_potmeterC1Ev
00002b87   _ZN4aeo112adc_potmeterC2Ev
00002bc9   _ZN4aeo112adc_potmeterD0Ev
00002ba5   _ZN4aeo112adc_potmeterD1Ev
00002ba5   _ZN4aeo112adc_potmeterD2Ev
000036e5   _ZN4aeo113Alpha7SegmentEc
00001e73   _ZN4aeo114ssi_peripheral10InitializeEv
0000213b   _ZN4aeo114ssi_peripheral10LoadTxFIFOEv
00001f7d   _ZN4aeo114ssi_peripheral11OnInterruptEv
00002171   _ZN4aeo114ssi_peripheral12UnloadRxFIFOEv
00002049   _ZN4aeo114ssi_peripheral4DiagEv
00003e71   _ZN4aeo114ssi_peripheral4OnRxEv
00003e7b   _ZN4aeo114ssi_peripheral4OnTxEv
000020df   _ZN4aeo114ssi_peripheral9TerminateEv
00001db1   _ZN4aeo114ssi_peripheralC1ENS0_9device_idE
00001db1   _ZN4aeo114ssi_peripheralC2ENS0_9device_idE
00001e5d   _ZN4aeo114ssi_peripheralD0Ev
00001e49   _ZN4aeo114ssi_peripheralD1Ev
00001e49   _ZN4aeo114ssi_peripheralD2Ev
200007c8   _ZN4aeo118SSI0_SpecificationE
200007f4   _ZN4aeo118SSI1_SpecificationE
20000820   _ZN4aeo118SSI2_SpecificationE
2000084c   _ZN4aeo118SSI3_SpecificationE
00003067   _ZN4aeo17drv871110InitializeEv
000030c9   _ZN4aeo17drv87114DiagEv
0000309d   _ZN4aeo17drv87114FeedEi
00003091   _ZN4aeo17drv87114HaltEv
00003085   _ZN4aeo17drv87114IdleEv
000030ad   _ZN4aeo17drv87114MoveEi
000030bd   _ZN4aeo17drv87114StopEv
00003019   _ZN4aeo17drv8711C1Ev
00003019   _ZN4aeo17drv8711C2Ev
00003051   _ZN4aeo17drv8711D0Ev
00003039   _ZN4aeo17drv8711D1Ev
00003039   _ZN4aeo17drv8711D2Ev
00003d45   _ZNK4aeo114ssi_peripheral7IsEmptyEv
00003363   _ZNKSt9type_info4nameEv
00003393   _ZNKSt9type_info6beforeERKS_
0000337d   _ZNKSt9type_infoeqERKS_
00003367   _ZNKSt9type_infoneERKS_
0000335b   _ZNSt9type_infoD0Ev
00003359   _ZNSt9type_infoD1Ev
00003359   _ZNSt9type_infoD2Ev
200006b0   _ZSt16__dummy_typeinfo
00003351   _ZSt21__gen_dummy_typeinfosv
00004580   _ZTIN10__cxxabiv117__class_type_infoE
0000458c   _ZTIN10__cxxabiv117__pbase_type_infoE
00004598   _ZTIN10__cxxabiv119__pointer_type_infoE
000045a4   _ZTIN10__cxxabiv120__si_class_type_infoE
000045b0   _ZTIN10__cxxabiv123__fundamental_type_infoE
000045d4   _ZTIN4aeo110qei_sensorE
000045dc   _ZTIN4aeo111pwm_stepperE
000045bc   _ZTIN4aeo111ssi_displayE
000045c8   _ZTIN4aeo111ssi_drv8711E
000045e4   _ZTIN4aeo112adc_potmeterE
000045ec   _ZTIN4aeo114ssi_peripheralE
000045f4   _ZTIN4aeo17drv8711E
000044d0   _ZTIPKe
000045fc   _ZTISt9type_info
00004604   _ZTIe
000043b1   _ZTSN10__cxxabiv117__class_type_infoE
000043d3   _ZTSN10__cxxabiv117__pbase_type_infoE
0000438d   _ZTSN10__cxxabiv119__pointer_type_infoE
00004368   _ZTSN10__cxxabiv120__si_class_type_infoE
000042a0   _ZTSN10__cxxabiv123__fundamental_type_infoE
00004481   _ZTSN4aeo110qei_sensorE
00004442   _ZTSN4aeo111pwm_stepperE
00004457   _ZTSN4aeo111ssi_displayE
0000446c   _ZTSN4aeo111ssi_drv8711E
0000442c   _ZTSN4aeo112adc_potmeterE
00004414   _ZTSN4aeo114ssi_peripheralE
000044e0   _ZTSN4aeo17drv8711E
0000460c   _ZTSPKe
00004570   _ZTSSt9type_info
00004072   _ZTSe
000044f0   _ZTVN10__cxxabiv117__class_type_infoE
00004500   _ZTVN10__cxxabiv119__pointer_type_infoE
00004510   _ZTVN10__cxxabiv120__si_class_type_infoE
00004520   _ZTVN10__cxxabiv123__fundamental_type_infoE
00004530   _ZTVN4aeo110qei_sensorE
00004540   _ZTVN4aeo111pwm_stepperE
000042c8   _ZTVN4aeo111ssi_displayE
000042f0   _ZTVN4aeo111ssi_drv8711E
00004550   _ZTVN4aeo112adc_potmeterE
00004318   _ZTVN4aeo114ssi_peripheralE
00004560   _ZTVN4aeo17drv8711E
00003e95   _ZdlPv
20000aec   __STACK_END
00000200   __STACK_SIZE
20000aec   __STACK_TOP
00000008   __SYSMEM_SIZE
000047f0   __TI_CINIT_Base
00004800   __TI_CINIT_Limit
000047d8   __TI_Handler_Table_Base
000047e4   __TI_Handler_Table_Limit
00000001   __TI_args_main
00003555   __TI_auto_init
200008d8   __TI_cleanup_ptr
00003db7   __TI_decompress_none
00003ebb   __TI_decompress_rle24
200008dc   __TI_dtors_ptr
00000000   __TI_static_base__
00003d11   __TI_zero_init
000032b5   __aeabi_atexit
000036e3   __aeabi_idiv0
00003669   __aeabi_memclr
00003669   __aeabi_memclr4
00003669   __aeabi_memclr8
000034b9   __aeabi_memcpy
000034b9   __aeabi_memcpy4
000034b9   __aeabi_memcpy8
0000366b   __aeabi_memset
0000366b   __aeabi_memset4
0000366b   __aeabi_memset8
00003a63   __aeabi_uidiv
00003a63   __aeabi_uidivmod
ffffffff   __binit__
ffffffff   __c_args__
000032a3   __cxa_atexit
0000325d   __cxa_finalize
0000329d   __cxa_ia64_exit
200006b4   __dso_handle
200008ec   __stack
00001c25   __sti___8_main_cpp_1c94e432
00003c0d   _args_main
00003911   _c_int00
200008d0   _lock
00003c9f   _nop
00003c97   _register_lock
00003c91   _register_unlock
20000af0   _sys_memory
200008d4   _unlock
000039a1   abort
000032a7   atexit
ffffffff   binit
00002615   calloc
00003959   copy_in
000039a9   exit
00002365   free
2000057c   g_oDialerDisplay
20000500   g_oDrv8711
200006a0   g_oLinearScale
20000690   g_oRotaryDialer
200005f4   g_oScaleDisplay
00000000   g_pfnVectors
200006c0   g_psCmdTable
20000744   g_psRotaryMenu
00001c13   main
200008e4   main_func_sp
000022fd   malloc
00002531   memalign
000034b9   memcpy
00003671   memset
00002271   minit
00002425   realloc
00003c25   strcmp
00000751   ulocaltime
0000094f   umktime
00000ec9   urand
00000721   usnprintf
000006ef   usprintf
00000eb9   usrand
00000e31   ustrcasecmp
00000ea5   ustrcmp
00000d35   ustrlen
00000d8d   ustrncasecmp
00000e45   ustrncmp
0000026d   ustrncpy
00000d57   ustrstr
00000afd   ustrtof
000009c5   ustrtoul
000002c5   uvsnprintf


GLOBAL SYMBOLS: SORTED BY Symbol Address 

address    name
--------   ----
00000000   __TI_static_base__
00000000   g_pfnVectors
00000001   __TI_args_main
00000008   __SYSMEM_SIZE
00000200   __STACK_SIZE
0000026d   ustrncpy
000002c5   uvsnprintf
000006ef   usprintf
00000721   usnprintf
00000751   ulocaltime
0000094f   umktime
000009c5   ustrtoul
00000afd   ustrtof
00000d35   ustrlen
00000d57   ustrstr
00000d8d   ustrncasecmp
00000e31   ustrcasecmp
00000e45   ustrncmp
00000ea5   ustrcmp
00000eb9   usrand
00000ec9   urand
00000fdd   UARTStdioConfig
00001063   UARTwrite
00001103   UARTgets
0000117f   UARTgetc
000011d9   UARTvprintf
000014d3   UARTprintf
000014f7   UARTRxBytesAvail
00001505   UARTTxBytesFree
00001519   UARTPeek
00001573   UARTFlushRx
00001593   UARTFlushTx
000015c9   UARTEchoSet
000015f5   UARTStdioIntHandler
00001751   _Z8CMD_zeroiPPc
0000176b   _Z7CMD_setiPPc
00001791   _Z8CMD_idleiPPc
000017a1   _Z8CMD_haltiPPc
000017b1   _Z8CMD_feediPPc
000017d7   _Z8CMD_moveiPPc
000017fd   _Z8CMD_stopiPPc
0000180d   _Z8CMD_textiPPc
00001827   _Z8CMD_diagiPPc
0000184f   _Z8CMD_helpiPPc
000018a1   _Z7MNU_setiPPc
000018bf   _Z8MNU_feediPPc
000018d5   _Z8MNU_moveiPPc
000018eb   _Z12OnMenuDialeri
00001979   _Z14OnNumberDialeri
000019a9   _Z8OnDialeri
00001a11   _Z13ConfigureUARTv
00001a51   SysTickIntHandler
00001b31   _Z10Initializev
00001bbd   _Z8MainLoopv
00001c13   main
00001c25   __sti___8_main_cpp_1c94e432
00001d49   OnSSI0Interrupt
00001d63   OnSSI1Interrupt
00001d7d   OnSSI2Interrupt
00001d97   OnSSI3Interrupt
00001db1   _ZN4aeo114ssi_peripheralC1ENS0_9device_idE
00001db1   _ZN4aeo114ssi_peripheralC2ENS0_9device_idE
00001e49   _ZN4aeo114ssi_peripheralD1Ev
00001e49   _ZN4aeo114ssi_peripheralD2Ev
00001e5d   _ZN4aeo114ssi_peripheralD0Ev
00001e73   _ZN4aeo114ssi_peripheral10InitializeEv
00001f7d   _ZN4aeo114ssi_peripheral11OnInterruptEv
00002049   _ZN4aeo114ssi_peripheral4DiagEv
000020df   _ZN4aeo114ssi_peripheral9TerminateEv
0000213b   _ZN4aeo114ssi_peripheral10LoadTxFIFOEv
00002171   _ZN4aeo114ssi_peripheral12UnloadRxFIFOEv
00002271   minit
000022fd   malloc
00002365   free
00002425   realloc
00002531   memalign
00002615   calloc
0000264d   _ZN4aeo110qei_sensorC1ENS0_9device_idENS0_13configurationE
0000264d   _ZN4aeo110qei_sensorC2ENS0_9device_idENS0_13configurationE
00002687   _ZN4aeo110qei_sensorD1Ev
00002687   _ZN4aeo110qei_sensorD2Ev
00002693   _ZN4aeo110qei_sensorD0Ev
000026a9   _ZN4aeo110qei_sensor10InitializeEv
000026d3   _ZN4aeo110qei_sensor3GetEv
000026fb   _ZN4aeo110qei_sensor8GetIndexEv
00002739   _ZN4aeo110qei_sensor3SetEi
0000275f   _ZN4aeo110qei_sensor4ZeroEv
0000276f   _ZN4aeo110qei_sensor4DiagEv
00002915   _ZN4aeo111ssi_displayC1ENS_14ssi_peripheral9device_idE
00002915   _ZN4aeo111ssi_displayC2ENS_14ssi_peripheral9device_idE
00002931   _ZN4aeo111ssi_displayD1Ev
00002931   _ZN4aeo111ssi_displayD2Ev
0000293f   _ZN4aeo111ssi_displayD0Ev
00002955   _ZN4aeo111ssi_display10InitializeEv
00002961   _ZN4aeo111ssi_display4DiagEv
00002973   _ZN4aeo111ssi_display3SetEii
00002a51   _ZN4aeo111ssi_display3SetEPKc
00002aef   _ZN4aeo111ssi_display14Digit2SegmentsEjjb
00002b75   OnADCInterrupt
00002b87   _ZN4aeo112adc_potmeterC1Ev
00002b87   _ZN4aeo112adc_potmeterC2Ev
00002ba5   _ZN4aeo112adc_potmeterD1Ev
00002ba5   _ZN4aeo112adc_potmeterD2Ev
00002bc9   _ZN4aeo112adc_potmeterD0Ev
00002bdf   _ZN4aeo112adc_potmeter10InitializeEv
00002c3f   _ZN4aeo112adc_potmeter9TerminateEv
00002c5b   _ZN4aeo112adc_potmeter11OnInterruptEv
00002cd7   _ZN4aeo112adc_potmeter7TriggerEv
00002ce5   _ZN4aeo112adc_potmeter8GetValueEv
00002d05   _ZN4aeo112adc_potmeter15GetErrorCounterEv
00002d1d   _ZN4aeo112adc_potmeter4DiagEv
00002d69   OnGPIOBInterrupt
00002d6b   OnGPIOEInterrupt
00002d6d   _ZN4aeo111ssi_drv8711C1ENS_14ssi_peripheral9device_idE
00002d6d   _ZN4aeo111ssi_drv8711C2ENS_14ssi_peripheral9device_idE
00002d89   _ZN4aeo111ssi_drv8711D1Ev
00002d89   _ZN4aeo111ssi_drv8711D2Ev
00002d97   _ZN4aeo111ssi_drv8711D0Ev
00002dad   _ZN4aeo111ssi_drv871110InitializeEv
00002e1f   _ZN4aeo111ssi_drv87114DiagEv
00002e5d   _ZN4aeo111ssi_drv87114OnRxEv
00002e6f   _ZN4aeo111ssi_drv87114ReadEv
00002ee9   GPIOPadConfigSet
00003019   _ZN4aeo17drv8711C1Ev
00003019   _ZN4aeo17drv8711C2Ev
00003039   _ZN4aeo17drv8711D1Ev
00003039   _ZN4aeo17drv8711D2Ev
00003051   _ZN4aeo17drv8711D0Ev
00003067   _ZN4aeo17drv871110InitializeEv
00003085   _ZN4aeo17drv87114IdleEv
00003091   _ZN4aeo17drv87114HaltEv
0000309d   _ZN4aeo17drv87114FeedEi
000030ad   _ZN4aeo17drv87114MoveEi
000030bd   _ZN4aeo17drv87114StopEv
000030c9   _ZN4aeo17drv87114DiagEv
00003145   SysCtlClockGet
0000325d   __cxa_finalize
0000329d   __cxa_ia64_exit
000032a3   __cxa_atexit
000032a7   atexit
000032b5   __aeabi_atexit
00003351   _ZSt21__gen_dummy_typeinfosv
00003359   _ZNSt9type_infoD1Ev
00003359   _ZNSt9type_infoD2Ev
0000335b   _ZNSt9type_infoD0Ev
00003363   _ZNKSt9type_info4nameEv
00003367   _ZNKSt9type_infoneERKS_
0000337d   _ZNKSt9type_infoeqERKS_
00003393   _ZNKSt9type_info6beforeERKS_
000033a1   _ZN10__cxxabiv129__pointer_to_member_type_infoD1Ev
000033a1   _ZN10__cxxabiv129__pointer_to_member_type_infoD2Ev
000033a3   _ZN10__cxxabiv129__pointer_to_member_type_infoD0Ev
000033ab   _ZN10__cxxabiv123__fundamental_type_infoD1Ev
000033ab   _ZN10__cxxabiv123__fundamental_type_infoD2Ev
000033ad   _ZN10__cxxabiv123__fundamental_type_infoD0Ev
000033b5   _ZN10__cxxabiv121__vmi_class_type_infoD1Ev
000033b5   _ZN10__cxxabiv121__vmi_class_type_infoD2Ev
000033b7   _ZN10__cxxabiv121__vmi_class_type_infoD0Ev
000033bf   _ZN10__cxxabiv120__si_class_type_infoD1Ev
000033bf   _ZN10__cxxabiv120__si_class_type_infoD2Ev
000033c1   _ZN10__cxxabiv120__si_class_type_infoD0Ev
000033c9   _ZN10__cxxabiv120__function_type_infoD1Ev
000033c9   _ZN10__cxxabiv120__function_type_infoD2Ev
000033cb   _ZN10__cxxabiv120__function_type_infoD0Ev
000033d3   _ZN10__cxxabiv119__pointer_type_infoD1Ev
000033d3   _ZN10__cxxabiv119__pointer_type_infoD2Ev
000033d5   _ZN10__cxxabiv119__pointer_type_infoD0Ev
000033dd   _ZN10__cxxabiv117__pbase_type_infoD1Ev
000033dd   _ZN10__cxxabiv117__pbase_type_infoD2Ev
000033df   _ZN10__cxxabiv117__pbase_type_infoD0Ev
000033e7   _ZN10__cxxabiv117__class_type_infoD1Ev
000033e7   _ZN10__cxxabiv117__class_type_infoD2Ev
000033e9   _ZN10__cxxabiv117__class_type_infoD0Ev
000033f1   _ZN10__cxxabiv117__array_type_infoD1Ev
000033f1   _ZN10__cxxabiv117__array_type_infoD2Ev
000033f3   _ZN10__cxxabiv117__array_type_infoD0Ev
000033fb   _ZN10__cxxabiv116__enum_type_infoD1Ev
000033fb   _ZN10__cxxabiv116__enum_type_infoD2Ev
000033fd   _ZN10__cxxabiv116__enum_type_infoD0Ev
0000340d   CmdLineProcess
000034b9   __aeabi_memcpy
000034b9   __aeabi_memcpy4
000034b9   __aeabi_memcpy8
000034b9   memcpy
00003555   __TI_auto_init
000035e9   ADCSequenceStepConfigure
00003669   __aeabi_memclr
00003669   __aeabi_memclr4
00003669   __aeabi_memclr8
0000366b   __aeabi_memset
0000366b   __aeabi_memset4
0000366b   __aeabi_memset8
00003671   memset
000036e3   __aeabi_idiv0
000036e5   _ZN4aeo113Alpha7SegmentEc
00003749   IntDisable
000037a9   IntEnable
00003809   _ZN4aeo111pwm_stepperC1Ev
00003809   _ZN4aeo111pwm_stepperC2Ev
0000381b   _ZN4aeo111pwm_stepperD1Ev
0000381b   _ZN4aeo111pwm_stepperD2Ev
00003827   _ZN4aeo111pwm_stepperD0Ev
0000383d   _ZN4aeo111pwm_stepper10InitializeEv
00003847   _ZN4aeo111pwm_stepper4DiagEv
000038c9   GPIOPinConfigure
00003911   _c_int00
00003959   copy_in
0000399d   C$$EXIT
000039a1   abort
000039a9   exit
000039e1   SSIConfigSetExpClk
00003a23   UARTConfigSetExpClk
00003a63   __aeabi_uidiv
00003a63   __aeabi_uidivmod
00003aa3   ADCSequenceConfigure
00003ae1   SysCtlPeripheralEnable
00003b15   SysCtlPeripheralPresent
00003b49   ADCIntStatus
00003b77   GPIODirModeSet
00003ba1   ADCSequenceDataGet
00003bc1   UARTDisable
00003bdd   ADCClockConfigSet
00003bf5   GPIOPinTypeGPIOOutput
00003c0d   _args_main
00003c25   strcmp
00003c3d   ADCProcessorTrigger
00003c55   SysTickEnable
00003c69   SysTickIntEnable
00003c7d   UARTEnable
00003c91   _register_unlock
00003c97   _register_lock
00003c9f   _nop
00003ca5   ADCHardwareOversampleConfigure
00003cb7   GPIOPinTypeADC
00003cc9   GPIOPinTypeQEI
00003cdb   GPIOPinTypeSSI
00003ced   GPIOPinTypeUART
00003cff   SSIDataGetNonBlocking
00003d11   __TI_zero_init
00003d23   ADCIntEnable
00003d35   SysTickPeriodSet
00003d45   _ZNK4aeo114ssi_peripheral7IsEmptyEv
00003d55   ADCIntDisable
00003d63   ADCSequenceDisable
00003d71   ADCSequenceEnable
00003d7f   QEIConfigure
00003d8d   SSIDataPutNonBlocking
00003d9b   UARTCharGetNonBlocking
00003da9   UARTCharPutNonBlocking
00003db7   __TI_decompress_none
00003dc5   CPUcpsid
00003dd1   CPUcpsie
00003ddd   UARTCharsAvail
00003de9   UARTSpaceAvail
00003df5   _ZN4aeo111ssi_display4OnTxEv
00003e01   ResetISR
00003e0d   ADCIntClear
00003e17   IntMasterDisable
00003e21   IntMasterEnable
00003e2b   QEIEnable
00003e35   SSIDisable
00003e3f   SSIEnable
00003e49   SSIIntDisable
00003e53   SSIIntStatus
00003e5d   UARTIntDisable
00003e67   UARTIntStatus
00003e71   _ZN4aeo114ssi_peripheral4OnRxEv
00003e7b   _ZN4aeo114ssi_peripheral4OnTxEv
00003e85   SSIIntEnable
00003e8d   UARTIntEnable
00003e95   _ZdlPv
00003e9d   GPIOPinRead
00003ea3   GPIOPinWrite
00003ea9   SysCtlDelay
00003eaf   UARTClockSourceSet
00003eb5   UARTFIFOLevelSet
00003ebb   __TI_decompress_rle24
00003ec1   QEIPositionGet
00003ec5   QEIPositionSet
00003ec9   SSIIntClear
00003ecd   UARTIntClear
00004072   _ZTSe
000042a0   _ZTSN10__cxxabiv123__fundamental_type_infoE
000042c8   _ZTVN4aeo111ssi_displayE
000042f0   _ZTVN4aeo111ssi_drv8711E
00004318   _ZTVN4aeo114ssi_peripheralE
00004368   _ZTSN10__cxxabiv120__si_class_type_infoE
0000438d   _ZTSN10__cxxabiv119__pointer_type_infoE
000043b1   _ZTSN10__cxxabiv117__class_type_infoE
000043d3   _ZTSN10__cxxabiv117__pbase_type_infoE
00004414   _ZTSN4aeo114ssi_peripheralE
0000442c   _ZTSN4aeo112adc_potmeterE
00004442   _ZTSN4aeo111pwm_stepperE
00004457   _ZTSN4aeo111ssi_displayE
0000446c   _ZTSN4aeo111ssi_drv8711E
00004481   _ZTSN4aeo110qei_sensorE
000044d0   _ZTIPKe
000044e0   _ZTSN4aeo17drv8711E
000044f0   _ZTVN10__cxxabiv117__class_type_infoE
00004500   _ZTVN10__cxxabiv119__pointer_type_infoE
00004510   _ZTVN10__cxxabiv120__si_class_type_infoE
00004520   _ZTVN10__cxxabiv123__fundamental_type_infoE
00004530   _ZTVN4aeo110qei_sensorE
00004540   _ZTVN4aeo111pwm_stepperE
00004550   _ZTVN4aeo112adc_potmeterE
00004560   _ZTVN4aeo17drv8711E
00004570   _ZTSSt9type_info
00004580   _ZTIN10__cxxabiv117__class_type_infoE
0000458c   _ZTIN10__cxxabiv117__pbase_type_infoE
00004598   _ZTIN10__cxxabiv119__pointer_type_infoE
000045a4   _ZTIN10__cxxabiv120__si_class_type_infoE
000045b0   _ZTIN10__cxxabiv123__fundamental_type_infoE
000045bc   _ZTIN4aeo111ssi_displayE
000045c8   _ZTIN4aeo111ssi_drv8711E
000045d4   _ZTIN4aeo110qei_sensorE
000045dc   _ZTIN4aeo111pwm_stepperE
000045e4   _ZTIN4aeo112adc_potmeterE
000045ec   _ZTIN4aeo114ssi_peripheralE
000045f4   _ZTIN4aeo17drv8711E
000045fc   _ZTISt9type_info
00004604   _ZTIe
0000460c   _ZTSPKe
00004610   SHT$$INIT_ARRAY$$Base
00004614   SHT$$INIT_ARRAY$$Limit
000047d8   __TI_Handler_Table_Base
000047e4   __TI_Handler_Table_Limit
000047f0   __TI_CINIT_Base
00004800   __TI_CINIT_Limit
20000500   g_oDrv8711
2000057c   g_oDialerDisplay
200005f4   g_oScaleDisplay
20000690   g_oRotaryDialer
200006a0   g_oLinearScale
200006b0   _ZSt16__dummy_typeinfo
200006b4   __dso_handle
200006c0   g_psCmdTable
20000744   g_psRotaryMenu
200007c8   _ZN4aeo118SSI0_SpecificationE
200007f4   _ZN4aeo118SSI1_SpecificationE
20000820   _ZN4aeo118SSI2_SpecificationE
2000084c   _ZN4aeo118SSI3_SpecificationE
200008a4   _ZN4aeo112adc_potmeter10m_nCounterE
200008a8   _ZN4aeo112adc_potmeter15m_nErrorCounterE
200008ac   _ZN4aeo112adc_potmeter14m_nReadCounterE
200008b0   _ZN4aeo112adc_potmeter16m_pTheOneAndOnlyE
200008d0   _lock
200008d4   _unlock
200008d8   __TI_cleanup_ptr
200008dc   __TI_dtors_ptr
200008e4   main_func_sp
200008ec   __stack
20000aec   __STACK_END
20000aec   __STACK_TOP
20000af0   _sys_memory
ffffffff   __binit__
ffffffff   __c_args__
ffffffff   binit

[357 symbols]
